; Function Attrs: mustprogress nofree norecurse nosync nounwind willreturn memory(argmem: readwrite) uwtable
define internal noundef zeroext i1 @_ZNSt17_Function_handlerIFbRN12_GLOBAL__N_111RootPresetsEPKN4Json5ValueEP11cmJSONStateEZN19cmJSONHelperBuilder6ObjectIS1_E4BindIS1_St6vectorIN19cmCMakePresetsGraph14WorkflowPresetESaISG_EEPFbRSI_S6_S8_EEERSC_RKSt17basic_string_viewIcSt11char_traitsIcEEMT_T0_T1_bEUlS2_S6_S8_E_E10_M_managerERSt9_Any_dataRKSZ_St18_Manager_operation(ptr nocapture noundef nonnull writeonly align 8 dereferenceable(16) %0, ptr noundef nonnull align 8 dereferenceable(16) %1, i32 noundef %2) #14 align 2 personality ptr @__gxx_personality_v0 {
  switch i32 %2, label %_ZNSt14_Function_base13_Base_managerIZN19cmJSONHelperBuilder6ObjectIN12_GLOBAL__N_111RootPresetsEE4BindIS4_St6vectorIN19cmCMakePresetsGraph14WorkflowPresetESaIS9_EEPFbRSB_PKN4Json5ValueEP11cmJSONStateEEERS5_RKSt17basic_string_viewIcSt11char_traitsIcEEMT_T0_T1_bEUlRS4_SG_SI_E_E10_M_managerERSt9_Any_dataRKSZ_St18_Manager_operation.exit [
    i32 0, label %4
    i32 1, label %5
    i32 2, label %6
  ]

4:                                                ; preds = %3
  store ptr @_ZTIZN19cmJSONHelperBuilder6ObjectIN12_GLOBAL__N_111RootPresetsEE4BindIS2_St6vectorIN19cmCMakePresetsGraph14WorkflowPresetESaIS7_EEPFbRS9_PKN4Json5ValueEP11cmJSONStateEEERS3_RKSt17basic_string_viewIcSt11char_traitsIcEEMT_T0_T1_bEUlRS2_SE_SG_E_, ptr %0, align 8
  br label %_ZNSt14_Function_base13_Base_managerIZN19cmJSONHelperBuilder6ObjectIN12_GLOBAL__N_111RootPresetsEE4BindIS4_St6vectorIN19cmCMakePresetsGraph14WorkflowPresetESaIS9_EEPFbRSB_PKN4Json5ValueEP11cmJSONStateEEERS5_RKSt17basic_string_viewIcSt11char_traitsIcEEMT_T0_T1_bEUlRS4_SG_SI_E_E10_M_managerERSt9_Any_dataRKSZ_St18_Manager_operation.exit

5:                                                ; preds = %3
  store ptr %1, ptr %0, align 8
  br label %_ZNSt14_Function_base13_Base_managerIZN19cmJSONHelperBuilder6ObjectIN12_GLOBAL__N_111RootPresetsEE4BindIS4_St6vectorIN19cmCMakePresetsGraph14WorkflowPresetESaIS9_EEPFbRSB_PKN4Json5ValueEP11cmJSONStateEEERS5_RKSt17basic_string_viewIcSt11char_traitsIcEEMT_T0_T1_bEUlRS4_SG_SI_E_E10_M_managerERSt9_Any_dataRKSZ_St18_Manager_operation.exit

6:                                                ; preds = %3
  tail call void @llvm.memcpy.p0.p0.i64(ptr noundef nonnull align 8 dereferenceable(16) %0, ptr noundef nonnull align 8 dereferenceable(16) %1, i64 16, i1 false)
  br label %_ZNSt14_Function_base13_Base_managerIZN19cmJSONHelperBuilder6ObjectIN12_GLOBAL__N_111RootPresetsEE4BindIS4_St6vectorIN19cmCMakePresetsGraph14WorkflowPresetESaIS9_EEPFbRSB_PKN4Json5ValueEP11cmJSONStateEEERS5_RKSt17basic_string_viewIcSt11char_traitsIcEEMT_T0_T1_bEUlRS4_SG_SI_E_E10_M_managerERSt9_Any_dataRKSZ_St18_Manager_operation.exit

_ZNSt14_Function_base13_Base_managerIZN19cmJSONHelperBuilder6ObjectIN12_GLOBAL__N_111RootPresetsEE4BindIS4_St6vectorIN19cmCMakePresetsGraph14WorkflowPresetESaIS9_EEPFbRSB_PKN4Json5ValueEP11cmJSONStateEEERS5_RKSt17basic_string_viewIcSt11char_traitsIcEEMT_T0_T1_bEUlRS4_SG_SI_E_E10_M_managerERSt9_Any_dataRKSZ_St18_Manager_operation.exit: ; preds = %3, %6, %5, %4
  ret i1 false
}